target datalayout = "e-m:e-p270:32:32-p271:32:32-p272:64:64-i64:64-i128:128-f80:128-n8:16:32:64-S128"
target triple = "x86_64-pc-linux-gnu"

%struct.cache_bin_info_s = type { i16 }
%struct.nstime_t = type { i64 }
%struct.tcache_slow_s = type { %struct.anon, %struct.cache_bin_array_descriptor_s, ptr, i32, %struct.nstime_t, i32, i32, i32, [36 x %struct.cache_bin_fill_ctl_s], [36 x i8], [36 x i8], ptr, ptr }
%struct.anon = type { ptr, ptr }
%struct.cache_bin_array_descriptor_s = type { %struct.anon.0, ptr }
%struct.anon.0 = type { ptr, ptr }
%struct.cache_bin_fill_ctl_s = type { i8, i8 }
%struct.tcache_s = type { ptr, [73 x %struct.cache_bin_s] }
%struct.cache_bin_s = type { ptr, %struct.cache_bin_stats_s, i16, i16, i16, %struct.cache_bin_info_s }
%struct.cache_bin_stats_s = type { i64 }
%struct.rtree_ctx_s = type { [16 x %struct.rtree_ctx_cache_elm_s], [8 x %struct.rtree_ctx_cache_elm_s] }
%struct.rtree_ctx_cache_elm_s = type { i64, ptr }
%struct.tsd_s = type { i8, i8, i8, i64, i64, i64, i64, i64, i64, i64, i64, i64, i64, i64, i64, i64, ptr, i64, i64, i64, ptr, ptr, %struct.ticker_geom_s, i8, %struct.tsd_binshards_s, %struct.tsd_link_t, i8, %struct.peak_s, %struct.activity_callback_thunk_s, %struct.tcache_slow_s, %struct.rtree_ctx_s, %struct.atomic_u8_t, i64, i64, i64, i64, %struct.tcache_s, %struct.witness_tsd_s }
%struct.ticker_geom_s = type { i32, i32 }
%struct.tsd_binshards_s = type { [36 x i8] }
%struct.tsd_link_t = type { ptr, ptr }
%struct.peak_s = type { i64, i64 }
%struct.activity_callback_thunk_s = type { ptr, ptr }
%struct.atomic_u8_t = type { i8 }
%struct.witness_tsd_s = type { %struct.witness_list_t, i8 }
%struct.witness_list_t = type { ptr }

@je_opt_experimental_tcache_gc = external global i8, align 1
@je_nstime_update = external constant ptr, align 8

; Function Attrs: alwaysinline nounwind uwtable
define internal ptr @tsd_tcache_enabledp_get_unsafe(ptr noundef %0) #1 {
  %2 = alloca ptr, align 8
  store ptr %0, ptr %2, align 8, !tbaa !14
  %3 = load ptr, ptr %2, align 8, !tbaa !14
  %4 = getelementptr inbounds nuw %struct.tsd_s, ptr %3, i32 0, i32 0
  ret ptr %4
}

; Function Attrs: alwaysinline nounwind uwtable
define internal ptr @tsd_tcache_enabledp_get(ptr noundef %0) #1 {
  %2 = alloca ptr, align 8
  %3 = alloca i8, align 1
  store ptr %0, ptr %2, align 8, !tbaa !14
  call void @llvm.lifetime.start.p0(i64 1, ptr %3) #13
  %4 = load ptr, ptr %2, align 8, !tbaa !14
  %5 = call zeroext i8 @tsd_state_get(ptr noundef %4)
  store i8 %5, ptr %3, align 1, !tbaa !66
  br label %6

6:                                                ; preds = %1
  br label %7

7:                                                ; preds = %6
  br label %8

8:                                                ; preds = %7
  %9 = load ptr, ptr %2, align 8, !tbaa !14
  %10 = call ptr @tsd_tcache_enabledp_get_unsafe(ptr noundef %9)
  call void @llvm.lifetime.end.p0(i64 1, ptr %3) #13
  ret ptr %10
}

; Function Attrs: alwaysinline nounwind uwtable
define internal ptr @tsd_tcachep_get_unsafe(ptr noundef %0) #1 {
  %2 = alloca ptr, align 8
  store ptr %0, ptr %2, align 8, !tbaa !14
  %3 = load ptr, ptr %2, align 8, !tbaa !14
  %4 = getelementptr inbounds nuw %struct.tsd_s, ptr %3, i32 0, i32 36
  ret ptr %4
}

; Function Attrs: alwaysinline nounwind uwtable
define internal zeroext i1 @tsd_tcache_enabled_get(ptr noundef %0) #1 {
  %2 = alloca ptr, align 8
  store ptr %0, ptr %2, align 8, !tbaa !14
  %3 = load ptr, ptr %2, align 8, !tbaa !14
  %4 = call ptr @tsd_tcache_enabledp_get(ptr noundef %3)
  %5 = load i8, ptr %4, align 1, !tbaa !22, !range !23, !noundef !24
  %6 = trunc i8 %5 to i1
  ret i1 %6
}

; Function Attrs: alwaysinline nounwind uwtable
define internal ptr @tsd_tcache_slowp_get_unsafe(ptr noundef %0) #1 {
  %2 = alloca ptr, align 8
  store ptr %0, ptr %2, align 8, !tbaa !14
  %3 = load ptr, ptr %2, align 8, !tbaa !14
  %4 = getelementptr inbounds nuw %struct.tsd_s, ptr %3, i32 0, i32 29
  ret ptr %4
}

; Function Attrs: alwaysinline nounwind uwtable
define internal zeroext i8 @tsd_state_get(ptr noundef %0) #1 {
  %2 = alloca ptr, align 8
  store ptr %0, ptr %2, align 8, !tbaa !14
  %3 = load ptr, ptr %2, align 8, !tbaa !14
  %4 = getelementptr inbounds nuw %struct.tsd_s, ptr %3, i32 0, i32 31
  %5 = load i8, ptr %4, align 8, !tbaa !66
  ret i8 %5
}

; Function Attrs: alwaysinline nounwind uwtable
define internal ptr @tsd_tcachep_get(ptr noundef %0) #1 {
  %2 = alloca ptr, align 8
  %3 = alloca i8, align 1
  store ptr %0, ptr %2, align 8, !tbaa !14
  call void @llvm.lifetime.start.p0(i64 1, ptr %3) #13
  %4 = load ptr, ptr %2, align 8, !tbaa !14
  %5 = call zeroext i8 @tsd_state_get(ptr noundef %4)
  store i8 %5, ptr %3, align 1, !tbaa !66
  br label %6

6:                                                ; preds = %1
  br label %7

7:                                                ; preds = %6
  br label %8

8:                                                ; preds = %7
  %9 = load ptr, ptr %2, align 8, !tbaa !14
  %10 = call ptr @tsd_tcachep_get_unsafe(ptr noundef %9)
  call void @llvm.lifetime.end.p0(i64 1, ptr %3) #13
  ret ptr %10
}

; Function Attrs: alwaysinline nounwind uwtable
define internal zeroext i1 @tcache_available(ptr noundef %0) #1 {
  %2 = alloca i1, align 1
  %3 = alloca ptr, align 8
  store ptr %0, ptr %3, align 8, !tbaa !14
  %4 = load ptr, ptr %3, align 8, !tbaa !14
  %5 = call zeroext i1 @tsd_tcache_enabled_get(ptr noundef %4)
  %6 = xor i1 %5, true
  %7 = xor i1 %6, true
  %8 = zext i1 %7 to i32
  %9 = sext i32 %8 to i64
  %10 = call i64 @llvm.expect.i64(i64 %9, i64 1)
  %11 = icmp ne i64 %10, 0
  br i1 %11, label %12, label %13

12:                                               ; preds = %1
  store i1 true, ptr %2, align 1
  br label %14

13:                                               ; preds = %1
  store i1 false, ptr %2, align 1
  br label %14

14:                                               ; preds = %13, %12
  %15 = load i1, ptr %2, align 1
  ret i1 %15
}

; Function Attrs: inlinehint nounwind uwtable
define internal i32 @tcache_nbins_get(ptr noundef %0) #3 {
  %2 = alloca ptr, align 8
  %3 = alloca i32, align 4
  store ptr %0, ptr %2, align 8, !tbaa !20
  br label %4

4:                                                ; preds = %1
  br label %5

5:                                                ; preds = %4
  call void @llvm.lifetime.start.p0(i64 4, ptr %3) #13
  %6 = load ptr, ptr %2, align 8, !tbaa !20
  %7 = getelementptr inbounds nuw %struct.tcache_slow_s, ptr %6, i32 0, i32 3
  %8 = load i32, ptr %7, align 8, !tbaa !127
  store i32 %8, ptr %3, align 4, !tbaa !34
  br label %9

9:                                                ; preds = %5
  br label %10

10:                                               ; preds = %9
  br label %11

11:                                               ; preds = %10
  %12 = load i32, ptr %3, align 4, !tbaa !34
  call void @llvm.lifetime.end.p0(i64 4, ptr %3) #13
  ret i32 %12
}

; Function Attrs: alwaysinline nounwind uwtable
define internal ptr @tsd_tcache_slowp_get(ptr noundef %0) #1 {
  %2 = alloca ptr, align 8
  %3 = alloca i8, align 1
  store ptr %0, ptr %2, align 8, !tbaa !14
  call void @llvm.lifetime.start.p0(i64 1, ptr %3) #13
  %4 = load ptr, ptr %2, align 8, !tbaa !14
  %5 = call zeroext i8 @tsd_state_get(ptr noundef %4)
  store i8 %5, ptr %3, align 1, !tbaa !66
  br label %6

6:                                                ; preds = %1
  br label %7

7:                                                ; preds = %6
  br label %8

8:                                                ; preds = %7
  %9 = load ptr, ptr %2, align 8, !tbaa !14
  %10 = call ptr @tsd_tcache_slowp_get_unsafe(ptr noundef %9)
  call void @llvm.lifetime.end.p0(i64 1, ptr %3) #13
  ret ptr %10
}

; Function Attrs: alwaysinline nounwind uwtable
define internal ptr @tcache_get(ptr noundef %0) #1 {
  %2 = alloca ptr, align 8
  %3 = alloca ptr, align 8
  store ptr %0, ptr %3, align 8, !tbaa !14
  %4 = load ptr, ptr %3, align 8, !tbaa !14
  %5 = call zeroext i1 @tcache_available(ptr noundef %4)
  br i1 %5, label %7, label %6

6:                                                ; preds = %1
  store ptr null, ptr %2, align 8
  br label %10

7:                                                ; preds = %1
  %8 = load ptr, ptr %3, align 8, !tbaa !14
  %9 = call ptr @tsd_tcachep_get(ptr noundef %8)
  store ptr %9, ptr %2, align 8
  br label %10

10:                                               ; preds = %7, %6
  %11 = load ptr, ptr %2, align 8
  ret ptr %11
}

; Function Attrs: nounwind uwtable
define internal void @tcache_event(ptr noundef %0) #0 {
  %2 = alloca ptr, align 8
  %3 = alloca ptr, align 8
  %4 = alloca i32, align 4
  %5 = alloca ptr, align 8
  %6 = alloca i32, align 4
  %7 = alloca %struct.nstime_t, align 8
  %8 = alloca i32, align 4
  %9 = alloca i32, align 4
  %10 = alloca i32, align 4
  %11 = alloca i32, align 4
  %12 = alloca i32, align 4
  %13 = alloca i32, align 4
  %14 = alloca i32, align 4
  %15 = alloca i32, align 4
  store ptr %0, ptr %2, align 8, !tbaa !14
  call void @llvm.lifetime.start.p0(i64 8, ptr %3) #13
  %16 = load ptr, ptr %2, align 8, !tbaa !14
  %17 = call ptr @tcache_get(ptr noundef %16)
  store ptr %17, ptr %3, align 8, !tbaa !18
  %18 = load ptr, ptr %3, align 8, !tbaa !18
  %19 = icmp eq ptr %18, null
  br i1 %19, label %20, label %21

20:                                               ; preds = %1
  store i32 1, ptr %4, align 4
  br label %168

21:                                               ; preds = %1
  call void @llvm.lifetime.start.p0(i64 8, ptr %5) #13
  %22 = load ptr, ptr %2, align 8, !tbaa !14
  %23 = call ptr @tsd_tcache_slowp_get(ptr noundef %22)
  store ptr %23, ptr %5, align 8, !tbaa !20
  br label %24

24:                                               ; preds = %21
  br label %25

25:                                               ; preds = %24
  br label %26

26:                                               ; preds = %25
  %27 = load i8, ptr @je_opt_experimental_tcache_gc, align 1, !tbaa !22, !range !23, !noundef !24
  %28 = trunc i8 %27 to i1
  br i1 %28, label %52, label %29

29:                                               ; preds = %26
  call void @llvm.lifetime.start.p0(i64 4, ptr %6) #13
  %30 = load ptr, ptr %5, align 8, !tbaa !20
  %31 = getelementptr inbounds nuw %struct.tcache_slow_s, ptr %30, i32 0, i32 5
  %32 = load i32, ptr %31, align 8, !tbaa !25
  store i32 %32, ptr %6, align 4, !tbaa !34
  %33 = load ptr, ptr %2, align 8, !tbaa !14
  %34 = load ptr, ptr %5, align 8, !tbaa !20
  %35 = load ptr, ptr %3, align 8, !tbaa !18
  %36 = load i32, ptr %6, align 4, !tbaa !34
  %37 = call zeroext i1 @tcache_try_gc_bin(ptr noundef %33, ptr noundef %34, ptr noundef %35, i32 noundef %36)
  %38 = load ptr, ptr %5, align 8, !tbaa !20
  %39 = getelementptr inbounds nuw %struct.tcache_slow_s, ptr %38, i32 0, i32 5
  %40 = load i32, ptr %39, align 8, !tbaa !25
  %41 = add i32 %40, 1
  store i32 %41, ptr %39, align 8, !tbaa !25
  %42 = load ptr, ptr %5, align 8, !tbaa !20
  %43 = getelementptr inbounds nuw %struct.tcache_slow_s, ptr %42, i32 0, i32 5
  %44 = load i32, ptr %43, align 8, !tbaa !25
  %45 = load ptr, ptr %5, align 8, !tbaa !20
  %46 = call i32 @tcache_nbins_get(ptr noundef %45)
  %47 = icmp eq i32 %44, %46
  br i1 %47, label %48, label %51

48:                                               ; preds = %29
  %49 = load ptr, ptr %5, align 8, !tbaa !20
  %50 = getelementptr inbounds nuw %struct.tcache_slow_s, ptr %49, i32 0, i32 5
  store i32 0, ptr %50, align 8, !tbaa !25
  br label %51

51:                                               ; preds = %48, %29
  store i32 1, ptr %4, align 4
  call void @llvm.lifetime.end.p0(i64 4, ptr %6) #13
  br label %167

52:                                               ; preds = %26
  call void @llvm.lifetime.start.p0(i64 8, ptr %7) #13
  %53 = load ptr, ptr %5, align 8, !tbaa !20
  %54 = getelementptr inbounds nuw %struct.tcache_slow_s, ptr %53, i32 0, i32 4
  call void @je_nstime_copy(ptr noundef %7, ptr noundef %54)
  %55 = load ptr, ptr @je_nstime_update, align 8, !tbaa !9
  call void %55(ptr noundef %7)
  br label %56

56:                                               ; preds = %52
  br label %57

57:                                               ; preds = %56
  br label %58

58:                                               ; preds = %57
  %59 = call i64 @je_nstime_ns(ptr noundef %7)
  %60 = load ptr, ptr %5, align 8, !tbaa !20
  %61 = getelementptr inbounds nuw %struct.tcache_slow_s, ptr %60, i32 0, i32 4
  %62 = call i64 @je_nstime_ns(ptr noundef %61)
  %63 = sub i64 %59, %62
  %64 = icmp ult i64 %63, 10000000
  br i1 %64, label %65, label %66

65:                                               ; preds = %58
  store i32 1, ptr %4, align 4
  br label %166

66:                                               ; preds = %58
  %67 = load ptr, ptr %5, align 8, !tbaa !20
  %68 = getelementptr inbounds nuw %struct.tcache_slow_s, ptr %67, i32 0, i32 4
  call void @je_nstime_copy(ptr noundef %68, ptr noundef %7)
  call void @llvm.lifetime.start.p0(i64 4, ptr %8) #13
  store i32 0, ptr %8, align 4, !tbaa !34
  call void @llvm.lifetime.start.p0(i64 4, ptr %9) #13
  store i32 0, ptr %9, align 4, !tbaa !34
  call void @llvm.lifetime.start.p0(i64 4, ptr %10) #13
  %69 = load ptr, ptr %5, align 8, !tbaa !20
  %70 = call i32 @tcache_nbins_get(ptr noundef %69)
  store i32 %70, ptr %10, align 4, !tbaa !34
  call void @llvm.lifetime.start.p0(i64 4, ptr %11) #13
  %71 = load i32, ptr %10, align 4, !tbaa !34
  %72 = zext i32 %71 to i64
  %73 = icmp ugt i64 %72, 36
  br i1 %73, label %74, label %75

74:                                               ; preds = %66
  br label %78

75:                                               ; preds = %66
  %76 = load i32, ptr %10, align 4, !tbaa !34
  %77 = zext i32 %76 to i64
  br label %78

78:                                               ; preds = %75, %74
  %79 = phi i64 [ 36, %74 ], [ %77, %75 ]
  %80 = trunc i64 %79 to i32
  store i32 %80, ptr %11, align 4, !tbaa !34
  call void @llvm.lifetime.start.p0(i64 4, ptr %12) #13
  %81 = load ptr, ptr %5, align 8, !tbaa !20
  %82 = getelementptr inbounds nuw %struct.tcache_slow_s, ptr %81, i32 0, i32 6
  %83 = load i32, ptr %82, align 4, !tbaa !35
  store i32 %83, ptr %12, align 4, !tbaa !34
  call void @llvm.lifetime.start.p0(i64 4, ptr %13) #13
  %84 = load ptr, ptr %5, align 8, !tbaa !20
  %85 = getelementptr inbounds nuw %struct.tcache_slow_s, ptr %84, i32 0, i32 7
  %86 = load i32, ptr %85, align 8, !tbaa !36
  store i32 %86, ptr %13, align 4, !tbaa !34
  call void @llvm.lifetime.start.p0(i64 4, ptr %14) #13
  store i32 0, ptr %14, align 4, !tbaa !34
  br label %87

87:                                               ; preds = %117, %78
  %88 = load i32, ptr %14, align 4, !tbaa !34
  %89 = load i32, ptr %11, align 4, !tbaa !34
  %90 = icmp ult i32 %88, %89
  br i1 %90, label %91, label %95

91:                                               ; preds = %87
  %92 = load i32, ptr %8, align 4, !tbaa !34
  %93 = zext i32 %92 to i64
  %94 = icmp ult i64 %93, 4
  br label %95

95:                                               ; preds = %91, %87
  %96 = phi i1 [ false, %87 ], [ %94, %91 ]
  br i1 %96, label %98, label %97

97:                                               ; preds = %95
  store i32 6, ptr %4, align 4
  call void @llvm.lifetime.end.p0(i64 4, ptr %14) #13
  br label %120

98:                                               ; preds = %95
  br label %99

99:                                               ; preds = %98
  br label %100

100:                                              ; preds = %99
  br label %101

101:                                              ; preds = %100
  %102 = load ptr, ptr %2, align 8, !tbaa !14
  %103 = load ptr, ptr %5, align 8, !tbaa !20
  %104 = load ptr, ptr %3, align 8, !tbaa !18
  %105 = load i32, ptr %12, align 4, !tbaa !34
  %106 = call zeroext i1 @tcache_try_gc_bin(ptr noundef %102, ptr noundef %103, ptr noundef %104, i32 noundef %105)
  br i1 %106, label %107, label %110

107:                                              ; preds = %101
  %108 = load i32, ptr %8, align 4, !tbaa !34
  %109 = add i32 %108, 1
  store i32 %109, ptr %8, align 4, !tbaa !34
  br label %110

110:                                              ; preds = %107, %101
  %111 = load i32, ptr %12, align 4, !tbaa !34
  %112 = add i32 %111, 1
  store i32 %112, ptr %12, align 4, !tbaa !34
  %113 = load i32, ptr %11, align 4, !tbaa !34
  %114 = icmp eq i32 %112, %113
  br i1 %114, label %115, label %116

115:                                              ; preds = %110
  store i32 0, ptr %12, align 4, !tbaa !34
  br label %116

116:                                              ; preds = %115, %110
  br label %117

117:                                              ; preds = %116
  %118 = load i32, ptr %14, align 4, !tbaa !34
  %119 = add i32 %118, 1
  store i32 %119, ptr %14, align 4, !tbaa !34
  br label %87, !llvm.loop !37

120:                                              ; preds = %97
  %121 = load i32, ptr %12, align 4, !tbaa !34
  %122 = load ptr, ptr %5, align 8, !tbaa !20
  %123 = getelementptr inbounds nuw %struct.tcache_slow_s, ptr %122, i32 0, i32 6
  store i32 %121, ptr %123, align 4, !tbaa !35
  %124 = load i32, ptr %10, align 4, !tbaa !34
  %125 = zext i32 %124 to i64
  %126 = icmp ule i64 %125, 36
  br i1 %126, label %127, label %128

127:                                              ; preds = %120
  store i32 1, ptr %4, align 4
  br label %165

128:                                              ; preds = %120
  call void @llvm.lifetime.start.p0(i64 4, ptr %15) #13
  store i32 36, ptr %15, align 4, !tbaa !34
  br label %129

129:                                              ; preds = %158, %128
  %130 = load i32, ptr %15, align 4, !tbaa !34
  %131 = load i32, ptr %10, align 4, !tbaa !34
  %132 = icmp ult i32 %130, %131
  br i1 %132, label %133, label %136

133:                                              ; preds = %129
  %134 = load i32, ptr %9, align 4, !tbaa !34
  %135 = icmp ult i32 %134, 1
  br label %136

136:                                              ; preds = %133, %129
  %137 = phi i1 [ false, %129 ], [ %135, %133 ]
  br i1 %137, label %139, label %138

138:                                              ; preds = %136
  store i32 11, ptr %4, align 4
  call void @llvm.lifetime.end.p0(i64 4, ptr %15) #13
  br label %161

139:                                              ; preds = %136
  br label %140

140:                                              ; preds = %139
  br label %141

141:                                              ; preds = %140
  br label %142

142:                                              ; preds = %141
  %143 = load ptr, ptr %2, align 8, !tbaa !14
  %144 = load ptr, ptr %5, align 8, !tbaa !20
  %145 = load ptr, ptr %3, align 8, !tbaa !18
  %146 = load i32, ptr %13, align 4, !tbaa !34
  %147 = call zeroext i1 @tcache_try_gc_bin(ptr noundef %143, ptr noundef %144, ptr noundef %145, i32 noundef %146)
  br i1 %147, label %148, label %151

148:                                              ; preds = %142
  %149 = load i32, ptr %9, align 4, !tbaa !34
  %150 = add i32 %149, 1
  store i32 %150, ptr %9, align 4, !tbaa !34
  br label %151

151:                                              ; preds = %148, %142
  %152 = load i32, ptr %13, align 4, !tbaa !34
  %153 = add i32 %152, 1
  store i32 %153, ptr %13, align 4, !tbaa !34
  %154 = load i32, ptr %10, align 4, !tbaa !34
  %155 = icmp eq i32 %153, %154
  br i1 %155, label %156, label %157

156:                                              ; preds = %151
  store i32 36, ptr %13, align 4, !tbaa !34
  br label %157

157:                                              ; preds = %156, %151
  br label %158

158:                                              ; preds = %157
  %159 = load i32, ptr %15, align 4, !tbaa !34
  %160 = add i32 %159, 1
  store i32 %160, ptr %15, align 4, !tbaa !34
  br label %129, !llvm.loop !39

161:                                              ; preds = %138
  %162 = load i32, ptr %13, align 4, !tbaa !34
  %163 = load ptr, ptr %5, align 8, !tbaa !20
  %164 = getelementptr inbounds nuw %struct.tcache_slow_s, ptr %163, i32 0, i32 7
  store i32 %162, ptr %164, align 8, !tbaa !36
  store i32 0, ptr %4, align 4
  br label %165

165:                                              ; preds = %161, %127
  call void @llvm.lifetime.end.p0(i64 4, ptr %13) #13
  call void @llvm.lifetime.end.p0(i64 4, ptr %12) #13
  call void @llvm.lifetime.end.p0(i64 4, ptr %11) #13
  call void @llvm.lifetime.end.p0(i64 4, ptr %10) #13
  call void @llvm.lifetime.end.p0(i64 4, ptr %9) #13
  call void @llvm.lifetime.end.p0(i64 4, ptr %8) #13
  br label %166

166:                                              ; preds = %165, %65
  call void @llvm.lifetime.end.p0(i64 8, ptr %7) #13
  br label %167

167:                                              ; preds = %166, %51
  call void @llvm.lifetime.end.p0(i64 8, ptr %5) #13
  br label %168

168:                                              ; preds = %167, %20
  call void @llvm.lifetime.end.p0(i64 8, ptr %3) #13
  %169 = load i32, ptr %4, align 4
  switch i32 %169, label %171 [
    i32 0, label %170
    i32 1, label %170
  ]

170:                                              ; preds = %168, %168
  ret void

171:                                              ; preds = %168
  unreachable
}