; Function Attrs: nounwind uwtable
define internal fastcc void @tcache_event(ptr noundef %0) unnamed_addr #0 {
  %2 = alloca %struct.nstime_t, align 8
  %3 = load i8, ptr %0, align 1, !tbaa !20, !range !22, !noundef !23
  %4 = trunc nuw i8 %3 to i1
  br i1 %4, label %5, label %tcache_get.exit.thread

5:                                                ; preds = %1
  %6 = getelementptr inbounds nuw i8, ptr %0, i64 928
  %7 = getelementptr inbounds nuw i8, ptr %0, i64 264
  %8 = load i8, ptr @je_opt_experimental_tcache_gc, align 1, !tbaa !20, !range !22, !noundef !23
  %9 = trunc nuw i8 %8 to i1
  br i1 %9, label %18, label %10

10:                                               ; preds = %5
  %11 = getelementptr inbounds nuw i8, ptr %0, i64 328
  %12 = load i32, ptr %11, align 8, !tbaa !24
  %13 = tail call fastcc zeroext i1 @tcache_try_gc_bin(ptr noundef nonnull %0, ptr noundef nonnull %7, ptr noundef %6, i32 noundef %12)
  %14 = load i32, ptr %11, align 8, !tbaa !24
  %15 = add i32 %14, 1
  %16 = getelementptr i8, ptr %0, i64 312
  %.val = load i32, ptr %16, align 8, !tbaa !36
  %17 = icmp eq i32 %15, %.val
  %spec.store.select59 = select i1 %17, i32 0, i32 %15
  store i32 %spec.store.select59, ptr %11, align 8
  br label %tcache_get.exit.thread

18:                                               ; preds = %5
  call void @llvm.lifetime.start.p0(i64 8, ptr nonnull %2) #16
  %19 = getelementptr inbounds nuw i8, ptr %0, i64 320
  call void @je_nstime_copy(ptr noundef nonnull %2, ptr noundef nonnull %19) #16
  %20 = load ptr, ptr @je_nstime_update, align 8, !tbaa !37
  call void %20(ptr noundef nonnull %2) #16
  %21 = call i64 @je_nstime_ns(ptr noundef nonnull %2) #16
  %22 = call i64 @je_nstime_ns(ptr noundef nonnull %19) #16
  %23 = sub i64 %21, %22
  %24 = icmp ult i64 %23, 10000000
  br i1 %24, label %._crit_edge.thread, label %25

25:                                               ; preds = %18
  call void @je_nstime_copy(ptr noundef nonnull %19, ptr noundef nonnull %2) #16
  %26 = getelementptr i8, ptr %0, i64 312
  %.val57 = load i32, ptr %26, align 8, !tbaa !36
  %27 = call i32 @llvm.umin.i32(i32 %.val57, i32 36)
  %28 = getelementptr inbounds nuw i8, ptr %0, i64 332
  %29 = getelementptr inbounds nuw i8, ptr %0, i64 336
  %30 = load i32, ptr %29, align 8, !tbaa !38
  %.not = icmp eq i32 %.val57, 0
  br i1 %.not, label %._crit_edge.thread, label %.lr.ph.preheader

.lr.ph.preheader:                                 ; preds = %25
  %31 = load i32, ptr %28, align 4, !tbaa !39
  br label %.lr.ph

._crit_edge:                                      ; preds = %.lr.ph
  store i32 %spec.store.select, ptr %28, align 4, !tbaa !39
  %32 = icmp ult i32 %.val57, 37
  br i1 %32, label %._crit_edge.thread, label %.preheader

.lr.ph:                                           ; preds = %.lr.ph.preheader, %.lr.ph
  %.04762 = phi i32 [ %37, %.lr.ph ], [ 0, %.lr.ph.preheader ]
  %.04961 = phi i32 [ %spec.store.select, %.lr.ph ], [ %31, %.lr.ph.preheader ]
  %.05060 = phi i32 [ %spec.select, %.lr.ph ], [ 0, %.lr.ph.preheader ]
  %33 = call fastcc zeroext i1 @tcache_try_gc_bin(ptr noundef nonnull %0, ptr noundef nonnull %7, ptr noundef %6, i32 noundef %.04961)
  %34 = zext i1 %33 to i32
  %spec.select = add nuw nsw i32 %.05060, %34
  %35 = add i32 %.04961, 1
  %36 = icmp eq i32 %35, %27
  %spec.store.select = select i1 %36, i32 0, i32 %35
  %37 = add nuw nsw i32 %.04762, 1
  %38 = icmp samesign ult i32 %37, %27
  %39 = icmp samesign ult i32 %spec.select, 4
  %40 = select i1 %38, i1 %39, i1 false
  br i1 %40, label %.lr.ph, label %._crit_edge, !llvm.loop !40

41:                                               ; preds = %.preheader
  store i32 %spec.store.select1, ptr %29, align 8, !tbaa !38
  br label %._crit_edge.thread

.preheader:                                       ; preds = %._crit_edge, %.preheader
  %.064 = phi i32 [ %45, %.preheader ], [ 36, %._crit_edge ]
  %.04863 = phi i32 [ %spec.store.select1, %.preheader ], [ %30, %._crit_edge ]
  %42 = call fastcc zeroext i1 @tcache_try_gc_bin(ptr noundef nonnull %0, ptr noundef nonnull %7, ptr noundef %6, i32 noundef %.04863)
  %43 = add i32 %.04863, 1
  %44 = icmp eq i32 %43, %.val57
  %spec.store.select1 = select i1 %44, i32 36, i32 %43
  %45 = add nuw i32 %.064, 1
  %46 = icmp uge i32 %45, %.val57
  %.not66 = or i1 %46, %42
  br i1 %.not66, label %41, label %.preheader, !llvm.loop !41

._crit_edge.thread:                               ; preds = %25, %41, %._crit_edge, %18
  call void @llvm.lifetime.end.p0(i64 8, ptr nonnull %2) #16
  br label %tcache_get.exit.thread

tcache_get.exit.thread:                           ; preds = %10, %1, %._crit_edge.thread
  ret void
}